target datalayout = "e-m:e-p270:32:32-p271:32:32-p272:64:64-i64:64-i128:128-f80:128-n8:16:32:64-S128"
target triple = "x86_64-pc-linux-gnu"

%struct.test_fixture = type { ptr, ptr, ptr, ptr, ptr, ptr, i32, ptr, ptr, ptr, i32, i32, i32 }
%struct.ossl_cmp_msg_st = type { ptr, ptr, ptr, ptr, ptr, ptr }
%struct.ossl_cmp_pkiheader_st = type { ptr, ptr, ptr, ptr, ptr, ptr, ptr, ptr, ptr, ptr, ptr, ptr }

@libctx = internal global ptr null, align 8
@.str.14 = private unnamed_addr constant [35 x i8] c"../openssl/test/cmp_protect_test.c\00", align 1
@ir_unprotected_f = internal global ptr null, align 8
@.str.43 = private unnamed_addr constant [42 x i8] c"test_cmp_calc_protection_no_key_no_secret\00", align 1
@.str.62 = private unnamed_addr constant [53 x i8] c"fixture->msg = load_pkimsg(ir_unprotected_f, libctx)\00", align 1
@.str.63 = private unnamed_addr constant [55 x i8] c"fixture->msg->header->protectionAlg = X509_ALGOR_new()\00", align 1
@.str.66 = private unnamed_addr constant [11 x i8] c"protection\00", align 1

; Function Attrs: inlinehint nounwind uwtable
define internal ptr @ossl_check_X509_sk_type(ptr noundef %0) #3 {
  %2 = alloca ptr, align 8
  store ptr %0, ptr %2, align 8, !tbaa !54
  %3 = load ptr, ptr %2, align 8, !tbaa !54
  ret ptr %3
}

; Function Attrs: nounwind uwtable
define internal i32 @execute_calc_protection_fails_test(ptr noundef %0) #0 {
  %2 = alloca ptr, align 8
  %3 = alloca ptr, align 8
  %4 = alloca i32, align 4
  store ptr %0, ptr %2, align 8, !tbaa !19
  call void @llvm.lifetime.start.p0(i64 8, ptr %3) #5
  %5 = load ptr, ptr %2, align 8, !tbaa !19
  %6 = getelementptr inbounds nuw %struct.test_fixture, ptr %5, i32 0, i32 1
  %7 = load ptr, ptr %6, align 8, !tbaa !40
  %8 = load ptr, ptr %2, align 8, !tbaa !19
  %9 = getelementptr inbounds nuw %struct.test_fixture, ptr %8, i32 0, i32 2
  %10 = load ptr, ptr %9, align 8, !tbaa !23
  %11 = call ptr @ossl_cmp_calc_protection(ptr noundef %7, ptr noundef %10)
  store ptr %11, ptr %3, align 8, !tbaa !53
  call void @llvm.lifetime.start.p0(i64 4, ptr %4) #5
  %12 = load ptr, ptr %3, align 8, !tbaa !53
  %13 = call i32 @test_ptr_null(ptr noundef @.str.14, i32 noundef 84, ptr noundef @.str.66, ptr noundef %12)
  store i32 %13, ptr %4, align 4, !tbaa !21
  %14 = load ptr, ptr %3, align 8, !tbaa !53
  call void @ASN1_BIT_STRING_free(ptr noundef %14)
  %15 = load i32, ptr %4, align 4, !tbaa !21
  call void @llvm.lifetime.end.p0(i64 4, ptr %4) #5
  call void @llvm.lifetime.end.p0(i64 8, ptr %3) #5
  ret i32 %15
}

; Function Attrs: nounwind uwtable
define internal void @tear_down(ptr noundef %0) #0 {
  %2 = alloca ptr, align 8
  store ptr %0, ptr %2, align 8, !tbaa !19
  %3 = load ptr, ptr %2, align 8, !tbaa !19
  %4 = icmp ne ptr %3, null
  br i1 %4, label %5, label %27

5:                                                ; preds = %1
  %6 = load ptr, ptr %2, align 8, !tbaa !19
  %7 = getelementptr inbounds nuw %struct.test_fixture, ptr %6, i32 0, i32 1
  %8 = load ptr, ptr %7, align 8, !tbaa !40
  call void @OSSL_CMP_CTX_free(ptr noundef %8)
  %9 = load ptr, ptr %2, align 8, !tbaa !19
  %10 = getelementptr inbounds nuw %struct.test_fixture, ptr %9, i32 0, i32 2
  %11 = load ptr, ptr %10, align 8, !tbaa !23
  call void @OSSL_CMP_MSG_free(ptr noundef %11)
  %12 = load ptr, ptr %2, align 8, !tbaa !19
  %13 = getelementptr inbounds nuw %struct.test_fixture, ptr %12, i32 0, i32 3
  %14 = load ptr, ptr %13, align 8, !tbaa !51
  call void @OSSL_CMP_PKISI_free(ptr noundef %14)
  %15 = load ptr, ptr %2, align 8, !tbaa !19
  %16 = getelementptr inbounds nuw %struct.test_fixture, ptr %15, i32 0, i32 5
  %17 = load ptr, ptr %16, align 8, !tbaa !52
  call void @CRYPTO_free(ptr noundef %17, ptr noundef @.str.14, i32 noundef 46)
  %18 = load ptr, ptr %2, align 8, !tbaa !19
  %19 = getelementptr inbounds nuw %struct.test_fixture, ptr %18, i32 0, i32 8
  %20 = load ptr, ptr %19, align 8, !tbaa !47
  %21 = call ptr @ossl_check_X509_sk_type(ptr noundef %20)
  call void @OPENSSL_sk_free(ptr noundef %21)
  %22 = load ptr, ptr %2, align 8, !tbaa !19
  %23 = getelementptr inbounds nuw %struct.test_fixture, ptr %22, i32 0, i32 9
  %24 = load ptr, ptr %23, align 8, !tbaa !48
  %25 = call ptr @ossl_check_X509_sk_type(ptr noundef %24)
  call void @OPENSSL_sk_free(ptr noundef %25)
  %26 = load ptr, ptr %2, align 8, !tbaa !19
  call void @CRYPTO_free(ptr noundef %26, ptr noundef @.str.14, i32 noundef 50)
  br label %27

27:                                               ; preds = %5, %1
  ret void
}

; Function Attrs: nounwind uwtable
define internal i32 @test_cmp_calc_protection_no_key_no_secret() #0 {
  %1 = alloca i32, align 4
  %2 = alloca ptr, align 8
  %3 = alloca i32, align 4
  %4 = alloca i32, align 4
  call void @llvm.lifetime.start.p0(i64 8, ptr %2) #5
  %5 = call ptr @set_up(ptr noundef @.str.43)
  store ptr %5, ptr %2, align 8, !tbaa !19
  call void @llvm.lifetime.start.p0(i64 4, ptr %3) #5
  store i32 0, ptr %3, align 4, !tbaa !21
  %6 = load ptr, ptr %2, align 8, !tbaa !19
  %7 = icmp eq ptr %6, null
  br i1 %7, label %8, label %9

8:                                                ; preds = %0
  store i32 0, ptr %1, align 4
  store i32 1, ptr %4, align 4
  br label %38

9:                                                ; preds = %0
  %10 = load ptr, ptr @ir_unprotected_f, align 8, !tbaa !17
  %11 = load ptr, ptr @libctx, align 8, !tbaa !15
  %12 = call ptr @load_pkimsg(ptr noundef %10, ptr noundef %11)
  %13 = load ptr, ptr %2, align 8, !tbaa !19
  %14 = getelementptr inbounds nuw %struct.test_fixture, ptr %13, i32 0, i32 2
  store ptr %12, ptr %14, align 8, !tbaa !23
  %15 = call i32 @test_ptr(ptr noundef @.str.14, i32 noundef 137, ptr noundef @.str.62, ptr noundef %12)
  %16 = icmp ne i32 %15, 0
  br i1 %16, label %17, label %27

17:                                               ; preds = %9
  %18 = call ptr @X509_ALGOR_new()
  %19 = load ptr, ptr %2, align 8, !tbaa !19
  %20 = getelementptr inbounds nuw %struct.test_fixture, ptr %19, i32 0, i32 2
  %21 = load ptr, ptr %20, align 8, !tbaa !23
  %22 = getelementptr inbounds nuw %struct.ossl_cmp_msg_st, ptr %21, i32 0, i32 0
  %23 = load ptr, ptr %22, align 8, !tbaa !28
  %24 = getelementptr inbounds nuw %struct.ossl_cmp_pkiheader_st, ptr %23, i32 0, i32 4
  store ptr %18, ptr %24, align 8, !tbaa !33
  %25 = call i32 @test_ptr(ptr noundef @.str.14, i32 noundef 139, ptr noundef @.str.63, ptr noundef %18)
  %26 = icmp ne i32 %25, 0
  br i1 %26, label %29, label %27

27:                                               ; preds = %17, %9
  %28 = load ptr, ptr %2, align 8, !tbaa !19
  call void @tear_down(ptr noundef %28)
  store ptr null, ptr %2, align 8, !tbaa !19
  br label %29

29:                                               ; preds = %27, %17
  %30 = load ptr, ptr %2, align 8, !tbaa !19
  %31 = icmp ne ptr %30, null
  br i1 %31, label %32, label %36

32:                                               ; preds = %29
  %33 = load ptr, ptr %2, align 8, !tbaa !19
  %34 = call i32 @execute_calc_protection_fails_test(ptr noundef %33)
  store i32 %34, ptr %3, align 4, !tbaa !21
  %35 = load ptr, ptr %2, align 8, !tbaa !19
  call void @tear_down(ptr noundef %35)
  br label %36

36:                                               ; preds = %32, %29
  %37 = load i32, ptr %3, align 4, !tbaa !21
  store i32 %37, ptr %1, align 4
  store i32 1, ptr %4, align 4
  br label %38

38:                                               ; preds = %36, %8
  call void @llvm.lifetime.end.p0(i64 4, ptr %3) #5
  call void @llvm.lifetime.end.p0(i64 8, ptr %2) #5
  %39 = load i32, ptr %1, align 4
  ret i32 %39
}