; Function Attrs: nounwind uwtable
define internal i32 @test_cmp_calc_protection_no_key_no_secret() #0 {
  %1 = tail call fastcc ptr @set_up(ptr noundef nonnull @.str.43)
  %2 = icmp eq ptr %1, null
  br i1 %2, label %28, label %3

3:                                                ; preds = %0
  %4 = load ptr, ptr @ir_unprotected_f, align 8, !tbaa !17
  %5 = load ptr, ptr @libctx, align 8, !tbaa !15
  %6 = tail call ptr @load_pkimsg(ptr noundef %4, ptr noundef %5) #5
  %7 = getelementptr i8, ptr %1, i64 16
  store ptr %6, ptr %7, align 8, !tbaa !19
  %8 = tail call i32 @test_ptr(ptr noundef nonnull @.str.14, i32 noundef 137, ptr noundef nonnull @.str.62, ptr noundef %6) #5
  %.not = icmp eq i32 %8, 0
  br i1 %.not, label %.thread, label %9

9:                                                ; preds = %3
  %10 = tail call ptr @X509_ALGOR_new() #5
  %11 = load ptr, ptr %7, align 8, !tbaa !19
  %12 = load ptr, ptr %11, align 8, !tbaa !25
  %13 = getelementptr inbounds nuw i8, ptr %12, i64 32
  store ptr %10, ptr %13, align 8, !tbaa !30
  %14 = tail call i32 @test_ptr(ptr noundef nonnull @.str.14, i32 noundef 139, ptr noundef nonnull @.str.63, ptr noundef %10) #5
  %.not11 = icmp eq i32 %14, 0
  br i1 %.not11, label %.thread, label %tear_down.exit15

.thread:                                          ; preds = %3, %9
  %15 = getelementptr inbounds nuw i8, ptr %1, i64 8
  br label %.sink.split

tear_down.exit15:                                 ; preds = %9
  %16 = getelementptr i8, ptr %1, i64 8
  %.08.val = load ptr, ptr %16, align 8, !tbaa !36
  %.08.val13 = load ptr, ptr %7, align 8, !tbaa !19
  %17 = tail call ptr @ossl_cmp_calc_protection(ptr noundef %.08.val, ptr noundef %.08.val13) #5
  %18 = tail call i32 @test_ptr_null(ptr noundef nonnull @.str.14, i32 noundef 84, ptr noundef nonnull @.str.66, ptr noundef %17) #5
  tail call void @ASN1_BIT_STRING_free(ptr noundef %17) #5
  br label %.sink.split

.sink.split:                                      ; preds = %tear_down.exit15, %.thread
  %.sink.in = phi ptr [ %15, %.thread ], [ %16, %tear_down.exit15 ]
  %.09.ph = phi i32 [ 0, %.thread ], [ %18, %tear_down.exit15 ]
  %.sink = load ptr, ptr %.sink.in, align 8, !tbaa !36
  tail call void @OSSL_CMP_CTX_free(ptr noundef %.sink) #5
  %19 = load ptr, ptr %7, align 8, !tbaa !19
  tail call void @OSSL_CMP_MSG_free(ptr noundef %19) #5
  %20 = getelementptr inbounds nuw i8, ptr %1, i64 24
  %21 = load ptr, ptr %20, align 8, !tbaa !37
  tail call void @OSSL_CMP_PKISI_free(ptr noundef %21) #5
  %22 = getelementptr inbounds nuw i8, ptr %1, i64 40
  %23 = load ptr, ptr %22, align 8, !tbaa !38
  tail call void @CRYPTO_free(ptr noundef %23, ptr noundef nonnull @.str.14, i32 noundef 46) #5
  %24 = getelementptr inbounds nuw i8, ptr %1, i64 64
  %25 = load ptr, ptr %24, align 8, !tbaa !39
  tail call void @OPENSSL_sk_free(ptr noundef %25) #5
  %26 = getelementptr inbounds nuw i8, ptr %1, i64 72
  %27 = load ptr, ptr %26, align 8, !tbaa !40
  tail call void @OPENSSL_sk_free(ptr noundef %27) #5
  tail call void @CRYPTO_free(ptr noundef nonnull %1, ptr noundef nonnull @.str.14, i32 noundef 50) #5
  br label %28

28:                                               ; preds = %.sink.split, %0
  %.09 = phi i32 [ 0, %0 ], [ %.09.ph, %.sink.split ]
  ret i32 %.09
}